#include <math.h>
#include <stdio.h>
#include <stdlib.h>
#include <string.h>
#include <iostream>
using namespace std;

int main()
{
	int i, n, a[110]={0};
	int *p=a;							//????????
	cin >> n;
	for (i=0; i<n; i++)
		cin >> *(p+i);					//?????*(p+i)???????????
	for (i=n-1; i>0; i--)
		cout << *(p+i) << ' ';			//????????
	cout << *p << endl;
	return 0;							//main???????0
}